Certificate:
    Data:
        Version: 3 (0x2)
        Serial Number: 1 (0x1)
    Signature Algorithm: sha1WithRSAEncryption
        Issuer: C=GB, O=Mixed Up Logic Ltd, OU=Cloud Sec, OU=CA, OU=Test, CN=Cloud Sec Sub-CA Test Certificate
        Validity
            Not Before: Feb 26 18:26:19 2015 GMT
            Not After : Feb 15 18:26:19 2017 GMT
        Subject: C=GB, O=Mixed Up Logic Ltd, OU=Cloud Sec, OU=CA, OU=Test, CN=Cloud Sec Sub-CA Test Certificate
        Subject Public Key Info:
            Public Key Algorithm: rsaEncryption
                Public-Key: (2048 bit)
                Modulus:
                    00:a9:1a:51:65:d5:ea:94:75:74:02:24:e0:18:65:
                    5d:d0:4b:dd:70:d6:e3:22:20:85:d1:67:6b:91:7a:
                    37:2e:37:49:ff:3a:93:5c:fe:64:62:7f:c9:28:14:
                    1a:75:cf:e8:ed:ca:d0:6f:8d:61:41:b8:7b:7c:1e:
                    4f:64:40:70:d4:15:be:f2:96:9f:f2:3a:c2:69:66:
                    d4:b8:23:7d:05:c0:5a:3a:8f:e2:86:35:03:17:0f:
                    49:09:d0:7a:c1:af:4d:f7:d7:7f:91:dc:32:dd:b2:
                    30:2f:a3:4c:2a:43:a7:fe:f9:87:0f:af:30:29:d7:
                    be:bf:a6:9c:6d:41:32:25:1a:04:29:e9:88:a8:c3:
                    aa:ba:90:86:06:74:c1:7e:8b:f1:41:a0:14:45:bc:
                    0c:d4:46:ca:f4:1b:5f:df:23:45:2e:7c:3c:0d:08:
                    00:38:a4:33:8a:fd:30:10:a4:35:cb:8c:9d:ae:8c:
                    75:56:db:da:cf:fd:d5:18:76:cb:2d:fa:6d:29:7c:
                    67:b0:05:e9:d6:bc:f8:3d:45:b2:ed:2f:8a:91:04:
                    b7:49:7b:c8:4d:a8:30:5f:28:63:05:84:c6:0f:af:
                    92:29:dd:0c:60:ec:a3:97:32:cc:6f:8e:2a:67:ce:
                    14:cb:ff:63:4a:3a:a6:3b:74:76:50:6d:2b:9e:c0:
                    fd:d7
                Exponent: 65537 (0x10001)
        X509v3 extensions:
            X509v3 Subject Key Identifier: 
                B5:7A:AE:CB:65:36:82:BB:D8:28:CF:F0:A7:94:10:4B:03:68:19:17
            X509v3 Authority Key Identifier: 
                keyid:B5:7A:AE:CB:65:36:82:BB:D8:28:CF:F0:A7:94:10:4B:03:68:19:17
                DirName:/C=GB/O=Mixed Up Logic Ltd/OU=Cloud Sec/OU=CA/OU=Test/CN=Cloud Sec Sub-CA Test Certificate
                serial:01

            X509v3 Basic Constraints: 
                CA:TRUE
            X509v3 Subject Alternative Name: 
                <EMPTY>

            X509v3 CRL Distribution Points: 

                Full Name:
                  URI:http://www.cloudsec.com/arl.crl

    Signature Algorithm: sha1WithRSAEncryption
         10:2e:02:c8:5b:f6:ca:cd:c1:59:8f:75:2d:1d:cd:6e:e9:3f:
         af:51:ee:b8:c6:f4:d1:46:0f:bc:0f:14:54:3b:53:e9:c2:ed:
         6d:7d:1d:30:97:d9:97:11:6c:48:41:3b:09:f3:da:23:ae:05:
         78:2f:a3:9b:a7:9a:eb:71:9b:77:7e:ad:df:c3:b3:13:67:96:
         a5:09:ff:14:85:0a:4c:df:64:31:f6:b2:fb:4b:48:26:76:83:
         a7:80:60:f0:2c:45:5e:73:72:b2:e8:4a:9c:6c:17:b9:4d:99:
         bb:da:ea:f6:2e:c3:6a:2d:5d:22:87:f9:10:d3:b3:4b:f8:c9:
         f3:57:7f:64:a4:02:e4:b9:11:ce:19:b4:20:ed:be:f6:fc:55:
         9d:82:19:dd:46:8b:30:f7:4b:dc:6a:89:62:f5:11:74:c9:ca:
         7a:72:34:c3:35:66:84:02:e0:c8:c1:c6:b0:ec:71:05:20:1a:
         3f:6e:0e:94:ff:24:ec:05:28:11:cf:1c:17:2f:47:13:c6:07:
         c8:93:a9:ef:63:4e:fa:bc:e4:10:96:e7:8f:19:65:55:c7:45:
         fa:47:e5:35:c2:0c:65:1a:5c:62:b2:90:ab:7b:fc:48:d5:92:
         b8:8c:4f:bc:86:aa:ff:a2:a1:d1:2e:e7:41:49:5b:01:de:6f:
         af:be:df:9b
-----BEGIN CERTIFICATE-----
MIIErzCCA5egAwIBAgIBATANBgkqhkiG9w0BAQUFADCBhjELMAkGA1UEBhMCR0Ix
GzAZBgNVBAoMEk1peGVkIFVwIExvZ2ljIEx0ZDESMBAGA1UECwwJQ2xvdWQgU2Vj
MQswCQYDVQQLDAJDQTENMAsGA1UECwwEVGVzdDEqMCgGA1UEAwwhQ2xvdWQgU2Vj
IFN1Yi1DQSBUZXN0IENlcnRpZmljYXRlMB4XDTE1MDIyNjE4MjYxOVoXDTE3MDIx
NTE4MjYxOVowgYYxCzAJBgNVBAYTAkdCMRswGQYDVQQKDBJNaXhlZCBVcCBMb2dp
YyBMdGQxEjAQBgNVBAsMCUNsb3VkIFNlYzELMAkGA1UECwwCQ0ExDTALBgNVBAsM
BFRlc3QxKjAoBgNVBAMMIUNsb3VkIFNlYyBTdWItQ0EgVGVzdCBDZXJ0aWZpY2F0
ZTCCASIwDQYJKoZIhvcNAQEBBQADggEPADCCAQoCggEBAKkaUWXV6pR1dAIk4Bhl
XdBL3XDW4yIghdFna5F6Ny43Sf86k1z+ZGJ/ySgUGnXP6O3K0G+NYUG4e3weT2RA
cNQVvvKWn/I6wmlm1LgjfQXAWjqP4oY1AxcPSQnQesGvTffXf5HcMt2yMC+jTCpD
p/75hw+vMCnXvr+mnG1BMiUaBCnpiKjDqrqQhgZ0wX6L8UGgFEW8DNRGyvQbX98j
RS58PA0IADikM4r9MBCkNcuMna6MdVbb2s/91Rh2yy36bSl8Z7AF6da8+D1Fsu0v
ipEEt0l7yE2oMF8oYwWExg+vkindDGDso5cyzG+OKmfOFMv/Y0o6pjt0dlBtK57A
/dcCAwEAAaOCASQwggEgMB0GA1UdDgQWBBS1eq7LZTaCu9goz/CnlBBLA2gZFzCB
swYDVR0jBIGrMIGogBS1eq7LZTaCu9goz/CnlBBLA2gZF6GBjKSBiTCBhjELMAkG
A1UEBhMCR0IxGzAZBgNVBAoMEk1peGVkIFVwIExvZ2ljIEx0ZDESMBAGA1UECwwJ
Q2xvdWQgU2VjMQswCQYDVQQLDAJDQTENMAsGA1UECwwEVGVzdDEqMCgGA1UEAwwh
Q2xvdWQgU2VjIFN1Yi1DQSBUZXN0IENlcnRpZmljYXRlggEBMAwGA1UdEwQFMAMB
Af8wCQYDVR0RBAIwADAwBgNVHR8EKTAnMCWgI6Ahhh9odHRwOi8vd3d3LmNsb3Vk
c2VjLmNvbS9hcmwuY3JsMA0GCSqGSIb3DQEBBQUAA4IBAQAQLgLIW/bKzcFZj3Ut
Hc1u6T+vUe64xvTRRg+8DxRUO1Ppwu1tfR0wl9mXEWxIQTsJ89ojrgV4L6Obp5rr
cZt3fq3fw7MTZ5alCf8UhQpM32Qx9rL7S0gmdoOngGDwLEVec3Ky6EqcbBe5TZm7
2ur2LsNqLV0ih/kQ07NL+MnzV39kpALkuRHOGbQg7b72/FWdghndRosw90vcaoli
9RF0ycp6cjTDNWaEAuDIwcaw7HEFIBo/bg6U/yTsBSgRzxwXL0cTxgfIk6nvY076
vOQQluePGWVVx0X6R+U1wgxlGlxispCre/xI1ZK4jE+8hqr/oqHRLudBSVsB3m+v
vt+b
-----END CERTIFICATE-----
