Certificate:
    Data:
        Version: 3 (0x2)
        Serial Number: 3 (0x3)
    Signature Algorithm: sha1WithRSAEncryption
        Issuer: C=GB, O=Mixed Up Logic Ltd, OU=Cloud Sec, OU=CA, OU=Test, CN=Cloud Sec Sub-CA Test Certificate
        Validity
            Not Before: Feb 26 18:32:12 2015 GMT
            Not After : Feb 26 18:32:12 2016 GMT
        Subject: C=GB, O=Mixed Up Logic Ltd, OU=Cloud Sec, OU=Client, OU=Test, OU=b666197ca0bef64eaf15364f811177cdfd849aa1, CN=Cloud Sec Client Test Certificate
        Subject Public Key Info:
            Public Key Algorithm: rsaEncryption
                Public-Key: (2048 bit)
                Modulus:
                    00:e4:8f:5e:86:11:7f:dd:73:15:4c:28:74:56:fc:
                    c4:ba:4c:45:c0:6f:09:60:4a:3c:4e:b0:e8:62:0a:
                    81:a0:ef:ef:73:fb:50:c8:4e:54:b7:40:41:3f:c3:
                    30:ee:e8:6c:e8:12:47:af:d2:5a:af:6e:7c:08:db:
                    cd:7a:83:4c:7c:3e:0a:b9:e4:a2:97:f5:32:c1:4d:
                    8c:1d:5a:73:da:aa:c9:12:66:f9:42:d5:11:88:1b:
                    2b:ac:51:59:86:49:89:50:bd:c2:a1:8a:b3:15:9b:
                    94:bf:08:be:84:f7:06:a9:e7:d8:eb:04:a4:80:bd:
                    e0:e1:83:c7:5d:4d:69:2f:fc:d9:36:13:8e:76:47:
                    ca:33:30:ed:a2:cd:0a:5a:f8:7d:9f:af:58:f0:1b:
                    28:d2:0b:d7:a8:a0:ea:bc:65:7d:2c:0b:4b:b7:af:
                    e3:85:b2:8c:a1:1c:22:60:c2:3e:8e:5f:78:1a:a8:
                    aa:5c:d6:9d:84:8b:27:53:06:15:93:05:ce:24:79:
                    bb:09:e1:81:79:f2:43:df:6c:25:1b:97:ad:c4:89:
                    14:79:bf:2e:bf:c7:0e:5b:8c:bf:60:23:0b:82:bd:
                    4c:72:28:79:c8:a1:ba:81:76:12:5e:92:8f:24:03:
                    99:65:0d:86:7a:4c:25:fc:5f:4a:68:5f:4c:3d:c1:
                    3f:2f
                Exponent: 65537 (0x10001)
        X509v3 extensions:
            X509v3 Basic Constraints: 
                CA:FALSE
            Netscape Comment: 
                OpenSSL Generated Certificate
            X509v3 Subject Key Identifier: 
                F8:F8:CD:F4:13:41:EF:04:CA:3D:F8:43:1E:30:B9:A3:BB:D9:65:7E
            X509v3 Authority Key Identifier: 
                keyid:B5:7A:AE:CB:65:36:82:BB:D8:28:CF:F0:A7:94:10:4B:03:68:19:17

            X509v3 Subject Alternative Name: 
                <EMPTY>

            X509v3 CRL Distribution Points: 

                Full Name:
                  URI:http://www.cloudsec.com/ca.crl

    Signature Algorithm: sha1WithRSAEncryption
         0e:b5:21:96:c5:c1:9f:c3:45:5e:7f:20:0d:06:10:f1:fa:ea:
         77:b1:e6:8c:8b:51:20:c2:1d:93:23:57:ec:43:8a:1d:08:2e:
         97:f3:7b:a2:b7:67:ef:eb:58:e1:47:bb:b9:7f:46:b7:bf:60:
         e9:87:b0:8e:3a:31:84:06:a4:72:2f:dd:3c:2c:00:c2:52:9f:
         76:ce:ae:64:e9:c4:1e:36:b6:94:85:18:5a:4d:1b:b9:de:d1:
         6f:df:f4:6d:38:64:11:bd:5b:d0:d3:2c:34:4f:ff:65:ed:c2:
         82:a8:cb:82:62:ca:60:3b:0b:91:72:56:14:df:a8:4e:e7:7f:
         de:05:93:d9:72:f4:08:37:80:1b:44:8e:53:cd:e4:ad:30:65:
         27:ef:0a:8b:d4:03:ab:39:b8:65:72:4e:20:30:fa:21:99:2f:
         e1:c7:ae:c2:67:96:32:29:a5:50:26:6d:55:f1:7d:ed:c8:ad:
         a9:67:f7:c0:9f:af:f8:ef:8d:27:f5:eb:93:72:8c:7b:be:29:
         74:aa:72:60:fe:e4:dd:34:08:7d:98:8c:98:a4:d9:a7:3d:6e:
         28:0a:9e:43:54:4a:b1:1d:b9:ea:06:98:ed:e3:7f:95:95:18:
         2f:29:84:74:7f:00:68:d7:4a:3f:d9:2e:a1:44:9c:4a:73:a1:
         ba:8d:a8:f2
-----BEGIN CERTIFICATE-----
MIIEeTCCA2GgAwIBAgIBAzANBgkqhkiG9w0BAQUFADCBhjELMAkGA1UEBhMCR0Ix
GzAZBgNVBAoMEk1peGVkIFVwIExvZ2ljIEx0ZDESMBAGA1UECwwJQ2xvdWQgU2Vj
MQswCQYDVQQLDAJDQTENMAsGA1UECwwEVGVzdDEqMCgGA1UEAwwhQ2xvdWQgU2Vj
IFN1Yi1DQSBUZXN0IENlcnRpZmljYXRlMB4XDTE1MDIyNjE4MzIxMloXDTE2MDIy
NjE4MzIxMlowgb0xCzAJBgNVBAYTAkdCMRswGQYDVQQKDBJNaXhlZCBVcCBMb2dp
YyBMdGQxEjAQBgNVBAsMCUNsb3VkIFNlYzEPMA0GA1UECwwGQ2xpZW50MQ0wCwYD
VQQLDARUZXN0MTEwLwYDVQQLDChiNjY2MTk3Y2EwYmVmNjRlYWYxNTM2NGY4MTEx
NzdjZGZkODQ5YWExMSowKAYDVQQDDCFDbG91ZCBTZWMgQ2xpZW50IFRlc3QgQ2Vy
dGlmaWNhdGUwggEiMA0GCSqGSIb3DQEBAQUAA4IBDwAwggEKAoIBAQDkj16GEX/d
cxVMKHRW/MS6TEXAbwlgSjxOsOhiCoGg7+9z+1DITlS3QEE/wzDu6GzoEkev0lqv
bnwI2816g0x8Pgq55KKX9TLBTYwdWnPaqskSZvlC1RGIGyusUVmGSYlQvcKhirMV
m5S/CL6E9wap59jrBKSAveDhg8ddTWkv/Nk2E452R8ozMO2izQpa+H2fr1jwGyjS
C9eooOq8ZX0sC0u3r+OFsoyhHCJgwj6OX3gaqKpc1p2EiydTBhWTBc4kebsJ4YF5
8kPfbCUbl63EiRR5vy6/xw5bjL9gIwuCvUxyKHnIobqBdhJeko8kA5llDYZ6TCX8
X0poX0w9wT8vAgMBAAGjgbgwgbUwCQYDVR0TBAIwADAsBglghkgBhvhCAQ0EHxYd
T3BlblNTTCBHZW5lcmF0ZWQgQ2VydGlmaWNhdGUwHQYDVR0OBBYEFPj4zfQTQe8E
yj34Qx4wuaO72WV+MB8GA1UdIwQYMBaAFLV6rstlNoK72CjP8KeUEEsDaBkXMAkG
A1UdEQQCMAAwLwYDVR0fBCgwJjAkoCKgIIYeaHR0cDovL3d3dy5jbG91ZHNlYy5j
b20vY2EuY3JsMA0GCSqGSIb3DQEBBQUAA4IBAQAOtSGWxcGfw0VefyANBhDx+up3
seaMi1Egwh2TI1fsQ4odCC6X83uit2fv61jhR7u5f0a3v2Dph7COOjGEBqRyL908
LADCUp92zq5k6cQeNraUhRhaTRu53tFv3/RtOGQRvVvQ0yw0T/9l7cKCqMuCYspg
OwuRclYU36hO53/eBZPZcvQIN4AbRI5TzeStMGUn7wqL1AOrObhlck4gMPohmS/h
x67CZ5YyKaVQJm1V8X3tyK2pZ/fAn6/4740n9euTcox7vil0qnJg/uTdNAh9mIyY
pNmnPW4oCp5DVEqxHbnqBpjt43+VlRgvKYR0fwBo10o/2S6hRJxKc6G6jajy
-----END CERTIFICATE-----
